target datalayout = "e-m:e-p270:32:32-p271:32:32-p272:64:64-i64:64-i128:128-f80:128-n8:16:32:64-S128"
target triple = "x86_64-pc-linux-gnu"

@.str.415 = private unnamed_addr constant [7 x i8] c"SPANK_\00", align 1
@.str.416 = private unnamed_addr constant [9 x i8] c"SPANK_%s\00", align 1

; Function Attrs: nounwind uwtable
define dso_local zeroext i1 @valid_spank_job_env(ptr noundef %0, i32 noundef %1, i32 noundef %2) #0 {
  %4 = alloca ptr, align 8
  %5 = alloca i32, align 4
  %6 = alloca i32, align 4
  %7 = alloca i32, align 4
  %8 = alloca ptr, align 8
  store ptr %0, ptr %4, align 8
  store i32 %1, ptr %5, align 4
  store i32 %2, ptr %6, align 4
  call void @llvm.lifetime.start.p0(i64 4, ptr %7) #11
  call void @llvm.lifetime.start.p0(i64 8, ptr %8) #11
  store i32 0, ptr %7, align 4
  br label %9

9:                                                ; preds = %34, %3
  %10 = load i32, ptr %7, align 4
  %11 = load i32, ptr %5, align 4
  %12 = icmp ult i32 %10, %11
  br i1 %12, label %13, label %37

13:                                               ; preds = %9
  %14 = load ptr, ptr %4, align 8
  %15 = load i32, ptr %7, align 4
  %16 = sext i32 %15 to i64
  %17 = getelementptr inbounds ptr, ptr %14, i64 %16
  %18 = load ptr, ptr %17, align 8
  %19 = call i32 @xstrncmp(ptr noundef %18, ptr noundef @.str.415, i64 noundef 6)
  %20 = icmp ne i32 %19, 0
  br i1 %20, label %22, label %21

21:                                               ; preds = %13
  br label %34

22:                                               ; preds = %13
  %23 = load ptr, ptr %4, align 8
  %24 = load i32, ptr %7, align 4
  %25 = sext i32 %24 to i64
  %26 = getelementptr inbounds ptr, ptr %23, i64 %25
  %27 = load ptr, ptr %26, align 8
  store ptr %27, ptr %8, align 8
  %28 = load ptr, ptr %8, align 8
  %29 = call ptr (ptr, ...) @xstrdup_printf(ptr noundef @.str.416, ptr noundef %28)
  %30 = load ptr, ptr %4, align 8
  %31 = load i32, ptr %7, align 4
  %32 = sext i32 %31 to i64
  %33 = getelementptr inbounds ptr, ptr %30, i64 %32
  store ptr %29, ptr %33, align 8
  call void @slurm_xfree(ptr noundef %8)
  br label %34

34:                                               ; preds = %22, %21
  %35 = load i32, ptr %7, align 4
  %36 = add nsw i32 %35, 1
  store i32 %36, ptr %7, align 4
  br label %9, !llvm.loop !69

37:                                               ; preds = %9
  call void @llvm.lifetime.end.p0(i64 8, ptr %8) #11
  call void @llvm.lifetime.end.p0(i64 4, ptr %7) #11
  ret i1 true
}