; Function Attrs: nounwind uwtable
define dso_local noundef zeroext i1 @valid_spank_job_env(ptr noundef captures(none) %0, i32 noundef %1, i32 noundef %2) local_unnamed_addr #1 {
  %4 = alloca ptr, align 8
  call void @llvm.lifetime.start.p0(i64 8, ptr nonnull %4) #24
  %.not9 = icmp eq i32 %1, 0
  br i1 %.not9, label %._crit_edge, label %.lr.ph.preheader

.lr.ph.preheader:                                 ; preds = %3
  %wide.trip.count = zext i32 %1 to i64
  br label %.lr.ph

.lr.ph:                                           ; preds = %.lr.ph.preheader, %11
  %indvars.iv = phi i64 [ 0, %.lr.ph.preheader ], [ %indvars.iv.next, %11 ]
  %5 = getelementptr inbounds nuw ptr, ptr %0, i64 %indvars.iv
  %6 = load ptr, ptr %5, align 8
  %7 = call i32 @xstrncmp(ptr noundef %6, ptr noundef nonnull @.str.415, i64 noundef 6) #24
  %.not = icmp eq i32 %7, 0
  br i1 %.not, label %11, label %8

8:                                                ; preds = %.lr.ph
  %9 = load ptr, ptr %5, align 8
  store ptr %9, ptr %4, align 8
  %10 = call ptr (ptr, ...) @xstrdup_printf(ptr noundef nonnull @.str.416, ptr noundef %9) #24
  store ptr %10, ptr %5, align 8
  call void @slurm_xfree(ptr noundef nonnull %4) #24
  br label %11

11:                                               ; preds = %.lr.ph, %8
  %indvars.iv.next = add nuw nsw i64 %indvars.iv, 1
  %exitcond.not = icmp eq i64 %indvars.iv.next, %wide.trip.count
  br i1 %exitcond.not, label %._crit_edge, label %.lr.ph, !llvm.loop !70

._crit_edge:                                      ; preds = %11, %3
  call void @llvm.lifetime.end.p0(i64 8, ptr nonnull %4) #24
  ret i1 true
}